target datalayout = "e-m:e-p270:32:32-p271:32:32-p272:64:64-i64:64-i128:128-f80:128-n8:16:32:64-S128"
target triple = "x86_64-pc-linux-gnu"

%"class.std::basic_ostream" = type { ptr, %"class.std::basic_ios" }
%"class.std::basic_ios" = type { %"class.std::ios_base", ptr, i8, i8, ptr, ptr, ptr, ptr }
%"class.std::ios_base" = type { ptr, i64, i64, i32, i32, i32, ptr, %"struct.std::ios_base::_Words", [8 x %"struct.std::ios_base::_Words"], i32, ptr, %"class.std::locale" }
%"struct.std::ios_base::_Words" = type { ptr, i64 }
%"class.std::locale" = type { ptr }
%"class.cv::Mat" = type { i32, i32, i32, i32, ptr, ptr, ptr, ptr, ptr, ptr, %"struct.cv::MatSize", %"struct.cv::MatStep" }
%"struct.cv::MatSize" = type { ptr }
%"struct.cv::MatStep" = type { ptr, [2 x i64] }
%"class.cv::Point_" = type { float, float }

@.str = private unnamed_addr constant [9 x i8] c"vertical\00", align 1
@.str.1 = private unnamed_addr constant [11 x i8] c"horizontal\00", align 1
@_ZSt4cout = external global %"class.std::basic_ostream", align 8
@.str.2 = private unnamed_addr constant [42 x i8] c"Warning: unknown subpixel peak direction!\00", align 1

; Function Attrs: inlinehint mustprogress nounwind uwtable
define linkonce_odr noundef i32 @_ZStorSt12_Ios_IostateS_(i32 noundef %0, i32 noundef %1) #6 comdat {
  %3 = alloca i32, align 4
  %4 = alloca i32, align 4
  store i32 %0, ptr %3, align 4, !tbaa !157
  store i32 %1, ptr %4, align 4, !tbaa !157
  %5 = load i32, ptr %3, align 4, !tbaa !157
  %6 = load i32, ptr %4, align 4, !tbaa !157
  %7 = or i32 %5, %6
  ret i32 %7
}

; Function Attrs: mustprogress nounwind uwtable
define available_externally noundef i32 @_ZNKSt9basic_iosIcSt11char_traitsIcEE7rdstateEv(ptr noundef nonnull align 8 dereferenceable(264) %0) #8 align 2 {
  %2 = alloca ptr, align 8
  store ptr %0, ptr %2, align 8, !tbaa !155
  %3 = load ptr, ptr %2, align 8
  %4 = getelementptr inbounds nuw %"class.std::ios_base", ptr %3, i32 0, i32 5
  %5 = load i32, ptr %4, align 8, !tbaa !159
  ret i32 %5
}

; Function Attrs: mustprogress nounwind uwtable
define linkonce_odr hidden noundef i64 @_ZNSt11char_traitsIcE6lengthEPKc(ptr noundef %0) #8 comdat align 2 {
  %2 = alloca ptr, align 8
  store ptr %0, ptr %2, align 8, !tbaa !77
  %3 = load ptr, ptr %2, align 8, !tbaa !77
  %4 = call i64 @strlen(ptr noundef %3) #3
  ret i64 %4
}

; Function Attrs: mustprogress uwtable
define available_externally void @_ZNSt9basic_iosIcSt11char_traitsIcEE8setstateESt12_Ios_Iostate(ptr noundef nonnull align 8 dereferenceable(264) %0, i32 noundef %1) #4 align 2 {
  %3 = alloca ptr, align 8
  %4 = alloca i32, align 4
  store ptr %0, ptr %3, align 8, !tbaa !155
  store i32 %1, ptr %4, align 4, !tbaa !157
  %5 = load ptr, ptr %3, align 8
  %6 = call noundef i32 @_ZNKSt9basic_iosIcSt11char_traitsIcEE7rdstateEv(ptr noundef nonnull align 8 dereferenceable(264) %5)
  %7 = load i32, ptr %4, align 4, !tbaa !157
  %8 = call noundef i32 @_ZStorSt12_Ios_IostateS_(i32 noundef %6, i32 noundef %7)
  call void @_ZNSt9basic_iosIcSt11char_traitsIcEE5clearESt12_Ios_Iostate(ptr noundef nonnull align 8 dereferenceable(264) %5, i32 noundef %8)
  ret void
}

; Function Attrs: alwaysinline mustprogress nounwind uwtable
define internal noundef i32 @_ZL14_mm_cvtss_si32Dv4_f(<4 x float> noundef %0) #13 {
  %2 = alloca <4 x float>, align 16
  store <4 x float> %0, ptr %2, align 16, !tbaa !74
  %3 = load <4 x float>, ptr %2, align 16, !tbaa !74
  %4 = call i32 @llvm.x86.sse.cvtss2si(<4 x float> %3)
  ret i32 %4
}

; Function Attrs: alwaysinline mustprogress nounwind uwtable
define internal noundef <4 x float> @_ZL10_mm_set_ssf(float noundef %0) #13 {
  %2 = alloca float, align 4
  %3 = alloca <4 x float>, align 16
  store float %0, ptr %2, align 4, !tbaa !20
  %4 = load float, ptr %2, align 4, !tbaa !20
  %5 = insertelement <4 x float> poison, float %4, i32 0
  %6 = insertelement <4 x float> %5, float 0.000000e+00, i32 1
  %7 = insertelement <4 x float> %6, float 0.000000e+00, i32 2
  %8 = insertelement <4 x float> %7, float 0.000000e+00, i32 3
  store <4 x float> %8, ptr %3, align 16, !tbaa !74
  %9 = load <4 x float>, ptr %3, align 16, !tbaa !74
  ret <4 x float> %9
}

; Function Attrs: mustprogress nounwind uwtable
define linkonce_odr noundef zeroext i1 @_ZSt8isfinitef(float noundef %0) #8 comdat {
  %2 = alloca float, align 4
  store float %0, ptr %2, align 4, !tbaa !20
  %3 = load float, ptr %2, align 4, !tbaa !20
  %4 = call i1 @llvm.is.fpclass.f32(float %3, i32 504)
  ret i1 %4
}

; Function Attrs: mustprogress uwtable
define available_externally noundef nonnull align 8 dereferenceable(8) ptr @_ZNSolsEPFRSoS_E(ptr noundef nonnull align 8 dereferenceable(8) %0, ptr noundef %1) #4 align 2 {
  %3 = alloca ptr, align 8
  %4 = alloca ptr, align 8
  store ptr %0, ptr %3, align 8, !tbaa !75
  store ptr %1, ptr %4, align 8, !tbaa !78
  %5 = load ptr, ptr %3, align 8
  %6 = load ptr, ptr %4, align 8, !tbaa !78
  %7 = call noundef nonnull align 8 dereferenceable(8) ptr %6(ptr noundef nonnull align 8 dereferenceable(8) %5)
  ret ptr %7
}

; Function Attrs: inlinehint mustprogress uwtable
define available_externally noundef nonnull align 8 dereferenceable(8) ptr @_ZStlsISt11char_traitsIcEERSt13basic_ostreamIcT_ES5_PKc(ptr noundef nonnull align 8 dereferenceable(8) %0, ptr noundef %1) #7 {
  %3 = alloca ptr, align 8
  %4 = alloca ptr, align 8
  store ptr %0, ptr %3, align 8, !tbaa !75
  store ptr %1, ptr %4, align 8, !tbaa !77
  %5 = load ptr, ptr %4, align 8, !tbaa !77
  %6 = icmp ne ptr %5, null
  br i1 %6, label %13, label %7

7:                                                ; preds = %2
  %8 = load ptr, ptr %3, align 8, !tbaa !75
  %9 = load ptr, ptr %8, align 8, !tbaa !40
  %10 = getelementptr i8, ptr %9, i64 -24
  %11 = load i64, ptr %10, align 8
  %12 = getelementptr inbounds i8, ptr %8, i64 %11
  call void @_ZNSt9basic_iosIcSt11char_traitsIcEE8setstateESt12_Ios_Iostate(ptr noundef nonnull align 8 dereferenceable(264) %12, i32 noundef 1)
  br label %19

13:                                               ; preds = %2
  %14 = load ptr, ptr %3, align 8, !tbaa !75
  %15 = load ptr, ptr %4, align 8, !tbaa !77
  %16 = load ptr, ptr %4, align 8, !tbaa !77
  %17 = call noundef i64 @_ZNSt11char_traitsIcE6lengthEPKc(ptr noundef %16)
  %18 = call noundef nonnull align 8 dereferenceable(8) ptr @_ZSt16__ostream_insertIcSt11char_traitsIcEERSt13basic_ostreamIT_T0_ES6_PKS3_l(ptr noundef nonnull align 8 dereferenceable(8) %14, ptr noundef %15, i64 noundef %17)
  br label %19

19:                                               ; preds = %13, %7
  %20 = load ptr, ptr %3, align 8, !tbaa !75
  ret ptr %20
}

; Function Attrs: inlinehint mustprogress nounwind uwtable
define linkonce_odr hidden noundef nonnull align 4 dereferenceable(4) ptr @_ZNK2cv3Mat2atIfEERKT_ii(ptr noundef nonnull align 8 dereferenceable(96) %0, i32 noundef %1, i32 noundef %2) #6 comdat align 2 {
  %4 = alloca ptr, align 8
  %5 = alloca i32, align 4
  %6 = alloca i32, align 4
  store ptr %0, ptr %4, align 8, !tbaa !3
  store i32 %1, ptr %5, align 4, !tbaa !8
  store i32 %2, ptr %6, align 4, !tbaa !8
  %7 = load ptr, ptr %4, align 8
  %8 = getelementptr inbounds nuw %"class.cv::Mat", ptr %7, i32 0, i32 4
  %9 = load ptr, ptr %8, align 8, !tbaa !25
  %10 = getelementptr inbounds nuw %"class.cv::Mat", ptr %7, i32 0, i32 11
  %11 = getelementptr inbounds nuw %"struct.cv::MatStep", ptr %10, i32 0, i32 0
  %12 = load ptr, ptr %11, align 8, !tbaa !26
  %13 = getelementptr inbounds i64, ptr %12, i64 0
  %14 = load i64, ptr %13, align 8, !tbaa !27
  %15 = load i32, ptr %5, align 4, !tbaa !8
  %16 = sext i32 %15 to i64
  %17 = mul i64 %14, %16
  %18 = getelementptr inbounds nuw i8, ptr %9, i64 %17
  %19 = load i32, ptr %6, align 4, !tbaa !8
  %20 = sext i32 %19 to i64
  %21 = getelementptr inbounds float, ptr %18, i64 %20
  ret ptr %21
}

; Function Attrs: inlinehint mustprogress nounwind uwtable
define linkonce_odr hidden noundef i32 @_ZN2cv5modulEii(i32 noundef %0, i32 noundef %1) #6 comdat {
  %3 = alloca i32, align 4
  %4 = alloca i32, align 4
  store i32 %0, ptr %3, align 4, !tbaa !8
  store i32 %1, ptr %4, align 4, !tbaa !8
  %5 = load i32, ptr %3, align 4, !tbaa !8
  %6 = load i32, ptr %4, align 4, !tbaa !8
  %7 = srem i32 %5, %6
  %8 = load i32, ptr %4, align 4, !tbaa !8
  %9 = add nsw i32 %7, %8
  %10 = load i32, ptr %4, align 4, !tbaa !8
  %11 = srem i32 %9, %10
  ret i32 %11
}

; Function Attrs: inlinehint mustprogress uwtable
define internal noundef i32 @_ZL7cvRoundf(float noundef %0) #11 {
  %2 = alloca float, align 4
  %3 = alloca <4 x float>, align 16
  store float %0, ptr %2, align 4, !tbaa !20
  call void @llvm.lifetime.start.p0(i64 16, ptr %3) #3
  %4 = load float, ptr %2, align 4, !tbaa !20
  %5 = call noundef <4 x float> @_ZL10_mm_set_ssf(float noundef %4)
  store <4 x float> %5, ptr %3, align 16, !tbaa !74
  %6 = load <4 x float>, ptr %3, align 16, !tbaa !74
  %7 = call noundef i32 @_ZL14_mm_cvtss_si32Dv4_f(<4 x float> noundef %6)
  call void @llvm.lifetime.end.p0(i64 16, ptr %3) #3
  ret i32 %7
}

; Function Attrs: mustprogress uwtable
define hidden noundef float @_ZN2cv13subpixel_peakERKNS_3MatERKNSt7__cxx1112basic_stringIcSt11char_traitsIcESaIcEEERKNS_6Point_IfEE(ptr noundef nonnull align 8 dereferenceable(96) %0, ptr noundef nonnull align 8 dereferenceable(32) %1, ptr noundef nonnull align 4 dereferenceable(8) %2) #4 {
  %4 = alloca float, align 4
  %5 = alloca ptr, align 8
  %6 = alloca ptr, align 8
  %7 = alloca ptr, align 8
  %8 = alloca i32, align 4
  %9 = alloca i32, align 4
  %10 = alloca i32, align 4
  %11 = alloca float, align 4
  %12 = alloca float, align 4
  %13 = alloca float, align 4
  %14 = alloca i32, align 4
  %15 = alloca i32, align 4
  %16 = alloca i32, align 4
  %17 = alloca float, align 4
  store ptr %0, ptr %5, align 8, !tbaa !3
  store ptr %1, ptr %6, align 8, !tbaa !70
  store ptr %2, ptr %7, align 8, !tbaa !72
  call void @llvm.lifetime.start.p0(i64 4, ptr %8) #3
  call void @llvm.lifetime.start.p0(i64 4, ptr %9) #3
  call void @llvm.lifetime.start.p0(i64 4, ptr %10) #3
  call void @llvm.lifetime.start.p0(i64 4, ptr %11) #3
  call void @llvm.lifetime.start.p0(i64 4, ptr %12) #3
  call void @llvm.lifetime.start.p0(i64 4, ptr %13) #3
  %18 = load ptr, ptr %6, align 8, !tbaa !70
  %19 = call noundef i32 @_ZNKSt7__cxx1112basic_stringIcSt11char_traitsIcESaIcEE7compareEPKc(ptr noundef nonnull align 8 dereferenceable(32) %18, ptr noundef @.str) #3
  %20 = icmp eq i32 %19, 0
  br i1 %20, label %21, label %63

21:                                               ; preds = %3
  %22 = load ptr, ptr %7, align 8, !tbaa !72
  %23 = getelementptr inbounds nuw %"class.cv::Point_", ptr %22, i32 0, i32 1
  %24 = load float, ptr %23, align 4, !tbaa !60
  %25 = call noundef i32 @_ZL7cvRoundf(float noundef %24)
  store i32 %25, ptr %8, align 4, !tbaa !8
  %26 = load ptr, ptr %7, align 8, !tbaa !72
  %27 = getelementptr inbounds nuw %"class.cv::Point_", ptr %26, i32 0, i32 1
  %28 = load float, ptr %27, align 4, !tbaa !60
  %29 = call noundef i32 @_ZL7cvRoundf(float noundef %28)
  %30 = sub nsw i32 %29, 1
  %31 = load ptr, ptr %5, align 8, !tbaa !3
  %32 = getelementptr inbounds nuw %"class.cv::Mat", ptr %31, i32 0, i32 2
  %33 = load i32, ptr %32, align 8, !tbaa !10
  %34 = call noundef i32 @_ZN2cv5modulEii(i32 noundef %30, i32 noundef %33)
  store i32 %34, ptr %9, align 4, !tbaa !8
  %35 = load ptr, ptr %7, align 8, !tbaa !72
  %36 = getelementptr inbounds nuw %"class.cv::Point_", ptr %35, i32 0, i32 1
  %37 = load float, ptr %36, align 4, !tbaa !60
  %38 = call noundef i32 @_ZL7cvRoundf(float noundef %37)
  %39 = add nsw i32 %38, 1
  %40 = load ptr, ptr %5, align 8, !tbaa !3
  %41 = getelementptr inbounds nuw %"class.cv::Mat", ptr %40, i32 0, i32 2
  %42 = load i32, ptr %41, align 8, !tbaa !10
  %43 = call noundef i32 @_ZN2cv5modulEii(i32 noundef %39, i32 noundef %42)
  store i32 %43, ptr %10, align 4, !tbaa !8
  call void @llvm.lifetime.start.p0(i64 4, ptr %14) #3
  %44 = load ptr, ptr %7, align 8, !tbaa !72
  %45 = getelementptr inbounds nuw %"class.cv::Point_", ptr %44, i32 0, i32 0
  %46 = load float, ptr %45, align 4, !tbaa !58
  %47 = fptosi float %46 to i32
  store i32 %47, ptr %14, align 4, !tbaa !8
  %48 = load ptr, ptr %5, align 8, !tbaa !3
  %49 = load i32, ptr %8, align 4, !tbaa !8
  %50 = load i32, ptr %14, align 4, !tbaa !8
  %51 = call noundef nonnull align 4 dereferenceable(4) ptr @_ZNK2cv3Mat2atIfEERKT_ii(ptr noundef nonnull align 8 dereferenceable(96) %48, i32 noundef %49, i32 noundef %50)
  %52 = load float, ptr %51, align 4, !tbaa !20
  store float %52, ptr %11, align 4, !tbaa !20
  %53 = load ptr, ptr %5, align 8, !tbaa !3
  %54 = load i32, ptr %9, align 4, !tbaa !8
  %55 = load i32, ptr %14, align 4, !tbaa !8
  %56 = call noundef nonnull align 4 dereferenceable(4) ptr @_ZNK2cv3Mat2atIfEERKT_ii(ptr noundef nonnull align 8 dereferenceable(96) %53, i32 noundef %54, i32 noundef %55)
  %57 = load float, ptr %56, align 4, !tbaa !20
  store float %57, ptr %12, align 4, !tbaa !20
  %58 = load ptr, ptr %5, align 8, !tbaa !3
  %59 = load i32, ptr %10, align 4, !tbaa !8
  %60 = load i32, ptr %14, align 4, !tbaa !8
  %61 = call noundef nonnull align 4 dereferenceable(4) ptr @_ZNK2cv3Mat2atIfEERKT_ii(ptr noundef nonnull align 8 dereferenceable(96) %58, i32 noundef %59, i32 noundef %60)
  %62 = load float, ptr %61, align 4, !tbaa !20
  store float %62, ptr %13, align 4, !tbaa !20
  call void @llvm.lifetime.end.p0(i64 4, ptr %14) #3
  br label %113

63:                                               ; preds = %3
  %64 = load ptr, ptr %6, align 8, !tbaa !70
  %65 = call noundef i32 @_ZNKSt7__cxx1112basic_stringIcSt11char_traitsIcESaIcEE7compareEPKc(ptr noundef nonnull align 8 dereferenceable(32) %64, ptr noundef @.str.1) #3
  %66 = icmp eq i32 %65, 0
  br i1 %66, label %67, label %109

67:                                               ; preds = %63
  %68 = load ptr, ptr %7, align 8, !tbaa !72
  %69 = getelementptr inbounds nuw %"class.cv::Point_", ptr %68, i32 0, i32 0
  %70 = load float, ptr %69, align 4, !tbaa !58
  %71 = call noundef i32 @_ZL7cvRoundf(float noundef %70)
  store i32 %71, ptr %8, align 4, !tbaa !8
  %72 = load ptr, ptr %7, align 8, !tbaa !72
  %73 = getelementptr inbounds nuw %"class.cv::Point_", ptr %72, i32 0, i32 0
  %74 = load float, ptr %73, align 4, !tbaa !58
  %75 = call noundef i32 @_ZL7cvRoundf(float noundef %74)
  %76 = sub nsw i32 %75, 1
  %77 = load ptr, ptr %5, align 8, !tbaa !3
  %78 = getelementptr inbounds nuw %"class.cv::Mat", ptr %77, i32 0, i32 3
  %79 = load i32, ptr %78, align 4, !tbaa !19
  %80 = call noundef i32 @_ZN2cv5modulEii(i32 noundef %76, i32 noundef %79)
  store i32 %80, ptr %9, align 4, !tbaa !8
  %81 = load ptr, ptr %7, align 8, !tbaa !72
  %82 = getelementptr inbounds nuw %"class.cv::Point_", ptr %81, i32 0, i32 0
  %83 = load float, ptr %82, align 4, !tbaa !58
  %84 = call noundef i32 @_ZL7cvRoundf(float noundef %83)
  %85 = add nsw i32 %84, 1
  %86 = load ptr, ptr %5, align 8, !tbaa !3
  %87 = getelementptr inbounds nuw %"class.cv::Mat", ptr %86, i32 0, i32 3
  %88 = load i32, ptr %87, align 4, !tbaa !19
  %89 = call noundef i32 @_ZN2cv5modulEii(i32 noundef %85, i32 noundef %88)
  store i32 %89, ptr %10, align 4, !tbaa !8
  call void @llvm.lifetime.start.p0(i64 4, ptr %15) #3
  %90 = load ptr, ptr %7, align 8, !tbaa !72
  %91 = getelementptr inbounds nuw %"class.cv::Point_", ptr %90, i32 0, i32 1
  %92 = load float, ptr %91, align 4, !tbaa !60
  %93 = fptosi float %92 to i32
  store i32 %93, ptr %15, align 4, !tbaa !8
  %94 = load ptr, ptr %5, align 8, !tbaa !3
  %95 = load i32, ptr %15, align 4, !tbaa !8
  %96 = load i32, ptr %8, align 4, !tbaa !8
  %97 = call noundef nonnull align 4 dereferenceable(4) ptr @_ZNK2cv3Mat2atIfEERKT_ii(ptr noundef nonnull align 8 dereferenceable(96) %94, i32 noundef %95, i32 noundef %96)
  %98 = load float, ptr %97, align 4, !tbaa !20
  store float %98, ptr %11, align 4, !tbaa !20
  %99 = load ptr, ptr %5, align 8, !tbaa !3
  %100 = load i32, ptr %15, align 4, !tbaa !8
  %101 = load i32, ptr %9, align 4, !tbaa !8
  %102 = call noundef nonnull align 4 dereferenceable(4) ptr @_ZNK2cv3Mat2atIfEERKT_ii(ptr noundef nonnull align 8 dereferenceable(96) %99, i32 noundef %100, i32 noundef %101)
  %103 = load float, ptr %102, align 4, !tbaa !20
  store float %103, ptr %12, align 4, !tbaa !20
  %104 = load ptr, ptr %5, align 8, !tbaa !3
  %105 = load i32, ptr %15, align 4, !tbaa !8
  %106 = load i32, ptr %10, align 4, !tbaa !8
  %107 = call noundef nonnull align 4 dereferenceable(4) ptr @_ZNK2cv3Mat2atIfEERKT_ii(ptr noundef nonnull align 8 dereferenceable(96) %104, i32 noundef %105, i32 noundef %106)
  %108 = load float, ptr %107, align 4, !tbaa !20
  store float %108, ptr %13, align 4, !tbaa !20
  call void @llvm.lifetime.end.p0(i64 4, ptr %15) #3
  br label %112

109:                                              ; preds = %63
  %110 = call noundef nonnull align 8 dereferenceable(8) ptr @_ZStlsISt11char_traitsIcEERSt13basic_ostreamIcT_ES5_PKc(ptr noundef nonnull align 8 dereferenceable(8) @_ZSt4cout, ptr noundef @.str.2)
  %111 = call noundef nonnull align 8 dereferenceable(8) ptr @_ZNSolsEPFRSoS_E(ptr noundef nonnull align 8 dereferenceable(8) %110, ptr noundef @_ZSt4endlIcSt11char_traitsIcEERSt13basic_ostreamIT_T0_ES6_)
  store float 0.000000e+00, ptr %4, align 4
  store i32 1, ptr %16, align 4
  br label %130

112:                                              ; preds = %67
  br label %113

113:                                              ; preds = %112, %21
  call void @llvm.lifetime.start.p0(i64 4, ptr %17) #3
  %114 = load float, ptr %13, align 4, !tbaa !20
  %115 = load float, ptr %12, align 4, !tbaa !20
  %116 = fsub float %114, %115
  %117 = fmul float 5.000000e-01, %116
  %118 = load float, ptr %11, align 4, !tbaa !20
  %119 = load float, ptr %13, align 4, !tbaa !20
  %120 = fneg float %119
  %121 = call float @llvm.fmuladd.f32(float 2.000000e+00, float %118, float %120)
  %122 = load float, ptr %12, align 4, !tbaa !20
  %123 = fsub float %121, %122
  %124 = fdiv float %117, %123
  store float %124, ptr %17, align 4, !tbaa !20
  %125 = load float, ptr %17, align 4, !tbaa !20
  %126 = call noundef zeroext i1 @_ZSt8isfinitef(float noundef %125)
  br i1 %126, label %128, label %127

127:                                              ; preds = %113
  store float 0.000000e+00, ptr %17, align 4, !tbaa !20
  br label %128

128:                                              ; preds = %127, %113
  %129 = load float, ptr %17, align 4, !tbaa !20
  store float %129, ptr %4, align 4
  store i32 1, ptr %16, align 4
  call void @llvm.lifetime.end.p0(i64 4, ptr %17) #3
  br label %130

130:                                              ; preds = %128, %109
  call void @llvm.lifetime.end.p0(i64 4, ptr %13) #3
  call void @llvm.lifetime.end.p0(i64 4, ptr %12) #3
  call void @llvm.lifetime.end.p0(i64 4, ptr %11) #3
  call void @llvm.lifetime.end.p0(i64 4, ptr %10) #3
  call void @llvm.lifetime.end.p0(i64 4, ptr %9) #3
  call void @llvm.lifetime.end.p0(i64 4, ptr %8) #3
  %131 = load float, ptr %4, align 4
  ret float %131
}