; Function Attrs: mustprogress uwtable
define hidden noundef float @_ZN2cv13subpixel_peakERKNS_3MatERKNSt7__cxx1112basic_stringIcSt11char_traitsIcESaIcEEERKNS_6Point_IfEE(ptr noundef nonnull readonly align 8 captures(none) dereferenceable(96) %0, ptr noundef nonnull align 8 dereferenceable(32) %1, ptr noundef nonnull readonly align 4 captures(none) dereferenceable(8) %2) local_unnamed_addr #10 {
  %4 = tail call noundef i32 @_ZNKSt7__cxx1112basic_stringIcSt11char_traitsIcESaIcEE7compareEPKc(ptr noundef nonnull align 8 dereferenceable(32) %1, ptr noundef nonnull @.str) #21
  %5 = icmp eq i32 %4, 0
  br i1 %5, label %6, label %41

6:                                                ; preds = %3
  %7 = getelementptr inbounds nuw i8, ptr %2, i64 4
  %8 = load float, ptr %7, align 4, !tbaa !73
  %9 = insertelement <4 x float> poison, float %8, i64 0
  %10 = tail call noundef i32 @llvm.x86.sse.cvtss2si(<4 x float> %9)
  %11 = add nsw i32 %10, -1
  %12 = getelementptr inbounds nuw i8, ptr %0, i64 8
  %13 = load i32, ptr %12, align 8, !tbaa !3
  %14 = srem i32 %11, %13
  %15 = add nsw i32 %14, %13
  %16 = srem i32 %15, %13
  %17 = add nsw i32 %10, 1
  %18 = srem i32 %17, %13
  %19 = add nsw i32 %18, %13
  %20 = srem i32 %19, %13
  %21 = load float, ptr %2, align 4, !tbaa !75
  %22 = fptosi float %21 to i32
  %23 = getelementptr inbounds nuw i8, ptr %0, i64 16
  %24 = load ptr, ptr %23, align 8, !tbaa !17
  %25 = getelementptr inbounds nuw i8, ptr %0, i64 72
  %26 = load ptr, ptr %25, align 8, !tbaa !18
  %27 = load i64, ptr %26, align 8, !tbaa !19
  %28 = sext i32 %10 to i64
  %29 = mul i64 %27, %28
  %30 = getelementptr inbounds nuw i8, ptr %24, i64 %29
  %31 = sext i32 %22 to i64
  %32 = getelementptr inbounds float, ptr %30, i64 %31
  %33 = sext i32 %16 to i64
  %34 = mul i64 %27, %33
  %35 = getelementptr inbounds nuw i8, ptr %24, i64 %34
  %36 = getelementptr inbounds float, ptr %35, i64 %31
  %37 = sext i32 %20 to i64
  %38 = mul i64 %27, %37
  %39 = getelementptr inbounds nuw i8, ptr %24, i64 %38
  %40 = getelementptr inbounds float, ptr %39, i64 %31
  br label %96

41:                                               ; preds = %3
  %42 = tail call noundef i32 @_ZNKSt7__cxx1112basic_stringIcSt11char_traitsIcESaIcEE7compareEPKc(ptr noundef nonnull align 8 dereferenceable(32) %1, ptr noundef nonnull @.str.1) #21
  %43 = icmp eq i32 %42, 0
  br i1 %43, label %44, label %75

44:                                               ; preds = %41
  %45 = load float, ptr %2, align 4, !tbaa !75
  %46 = insertelement <4 x float> poison, float %45, i64 0
  %47 = tail call noundef i32 @llvm.x86.sse.cvtss2si(<4 x float> %46)
  %48 = add nsw i32 %47, -1
  %49 = getelementptr inbounds nuw i8, ptr %0, i64 12
  %50 = load i32, ptr %49, align 4, !tbaa !16
  %51 = srem i32 %48, %50
  %52 = add nsw i32 %51, %50
  %53 = srem i32 %52, %50
  %54 = add nsw i32 %47, 1
  %55 = srem i32 %54, %50
  %56 = add nsw i32 %55, %50
  %57 = srem i32 %56, %50
  %58 = getelementptr inbounds nuw i8, ptr %2, i64 4
  %59 = load float, ptr %58, align 4, !tbaa !73
  %60 = fptosi float %59 to i32
  %61 = getelementptr inbounds nuw i8, ptr %0, i64 16
  %62 = load ptr, ptr %61, align 8, !tbaa !17
  %63 = getelementptr inbounds nuw i8, ptr %0, i64 72
  %64 = load ptr, ptr %63, align 8, !tbaa !18
  %65 = load i64, ptr %64, align 8, !tbaa !19
  %66 = sext i32 %60 to i64
  %67 = mul i64 %65, %66
  %68 = getelementptr inbounds nuw i8, ptr %62, i64 %67
  %69 = sext i32 %47 to i64
  %70 = getelementptr inbounds float, ptr %68, i64 %69
  %71 = sext i32 %53 to i64
  %72 = getelementptr inbounds float, ptr %68, i64 %71
  %73 = sext i32 %57 to i64
  %74 = getelementptr inbounds float, ptr %68, i64 %73
  br label %96

75:                                               ; preds = %41
  %76 = tail call noundef nonnull align 8 dereferenceable(8) ptr @_ZSt16__ostream_insertIcSt11char_traitsIcEERSt13basic_ostreamIT_T0_ES6_PKS3_l(ptr noundef nonnull align 8 dereferenceable(8) @_ZSt4cout, ptr noundef nonnull @.str.2, i64 noundef 41)
  %77 = load ptr, ptr @_ZSt4cout, align 8, !tbaa !36
  %78 = getelementptr i8, ptr %77, i64 -24
  %79 = load i64, ptr %78, align 8
  %80 = getelementptr inbounds i8, ptr @_ZSt4cout, i64 %79
  %81 = getelementptr inbounds nuw i8, ptr %80, i64 240
  %82 = load ptr, ptr %81, align 8, !tbaa !76
  %.not.i.i.i = icmp eq ptr %82, null
  br i1 %.not.i.i.i, label %83, label %_ZSt13__check_facetISt5ctypeIcEERKT_PS3_.exit.i.i

83:                                               ; preds = %75
  tail call void @_ZSt16__throw_bad_castv() #22
  unreachable

_ZSt13__check_facetISt5ctypeIcEERKT_PS3_.exit.i.i: ; preds = %75
  %84 = getelementptr inbounds nuw i8, ptr %82, i64 56
  %85 = load i8, ptr %84, align 8, !tbaa !92
  %.not.i1.i.i = icmp eq i8 %85, 0
  br i1 %.not.i1.i.i, label %89, label %86

86:                                               ; preds = %_ZSt13__check_facetISt5ctypeIcEERKT_PS3_.exit.i.i
  %87 = getelementptr inbounds nuw i8, ptr %82, i64 67
  %88 = load i8, ptr %87, align 1, !tbaa !97
  br label %_ZSt4endlIcSt11char_traitsIcEERSt13basic_ostreamIT_T0_ES6_.exit

89:                                               ; preds = %_ZSt13__check_facetISt5ctypeIcEERKT_PS3_.exit.i.i
  tail call void @_ZNKSt5ctypeIcE13_M_widen_initEv(ptr noundef nonnull align 8 dereferenceable(570) %82)
  %90 = load ptr, ptr %82, align 8, !tbaa !36
  %91 = getelementptr inbounds nuw i8, ptr %90, i64 48
  %92 = load ptr, ptr %91, align 8
  %93 = tail call noundef signext i8 %92(ptr noundef nonnull align 8 dereferenceable(570) %82, i8 noundef signext 10)
  br label %_ZSt4endlIcSt11char_traitsIcEERSt13basic_ostreamIT_T0_ES6_.exit

_ZSt4endlIcSt11char_traitsIcEERSt13basic_ostreamIT_T0_ES6_.exit: ; preds = %86, %89
  %.0.i.i.i = phi i8 [ %88, %86 ], [ %93, %89 ]
  %94 = tail call noundef nonnull align 8 dereferenceable(8) ptr @_ZNSo3putEc(ptr noundef nonnull align 8 dereferenceable(8) @_ZSt4cout, i8 noundef signext %.0.i.i.i)
  %95 = tail call noundef nonnull align 8 dereferenceable(8) ptr @_ZNSo5flushEv(ptr noundef nonnull align 8 dereferenceable(8) %94)
  br label %105

96:                                               ; preds = %44, %6
  %.042.in = phi ptr [ %32, %6 ], [ %70, %44 ]
  %.041.in = phi ptr [ %36, %6 ], [ %72, %44 ]
  %.040.in = phi ptr [ %40, %6 ], [ %74, %44 ]
  %.041 = load float, ptr %.041.in, align 4, !tbaa !21
  %.042 = load float, ptr %.042.in, align 4, !tbaa !21
  %.040 = load float, ptr %.040.in, align 4, !tbaa !21
  %97 = fsub float %.040, %.041
  %98 = fmul float %97, 5.000000e-01
  %99 = fneg float %.040
  %100 = tail call float @llvm.fmuladd.f32(float %.042, float 2.000000e+00, float %99)
  %101 = fsub float %100, %.041
  %102 = fdiv float %98, %101
  %103 = tail call float @llvm.fabs.f32(float %102)
  %104 = fcmp one float %103, 0x7FF0000000000000
  %.0 = select i1 %104, float %102, float 0.000000e+00
  br label %105

105:                                              ; preds = %96, %_ZSt4endlIcSt11char_traitsIcEERSt13basic_ostreamIT_T0_ES6_.exit
  %.039 = phi float [ %.0, %96 ], [ 0.000000e+00, %_ZSt4endlIcSt11char_traitsIcEERSt13basic_ostreamIT_T0_ES6_.exit ]
  ret float %.039
}